target datalayout = "e-m:e-p270:32:32-p271:32:32-p272:64:64-i64:64-i128:128-f80:128-n8:16:32:64-S128"
target triple = "x86_64-pc-linux-gnu"

@proto_register_icq.ett = internal global [4 x ptr] [ptr @ett_icq, ptr @ett_icq_header, ptr @ett_icq_body, ptr @ett_icq_body_parts], align 16
@.str.135 = private unnamed_addr constant [13 x i8] c"ICQ Protocol\00", align 1
@.str.136 = private unnamed_addr constant [4 x i8] c"ICQ\00", align 1
@.str.137 = private unnamed_addr constant [4 x i8] c"icq\00", align 1
@proto_icq = internal global i32 0, align 4
@icq_handle = internal global ptr null, align 8

; Function Attrs: null_pointer_is_valid sspstrong uwtable
define hidden void @proto_register_icq() #0 {
  %1 = alloca ptr, align 8
  call void @llvm.lifetime.start.p0(i64 8, ptr %1) #6
  %2 = call i32 @proto_register_protocol(ptr noundef @.str.135, ptr noundef @.str.136, ptr noundef @.str.137)
  store i32 %2, ptr @proto_icq, align 4
  %3 = load i32, ptr @proto_icq, align 4
  call void @proto_register_field_array(i32 noundef %3, ptr noundef @proto_register_icq.hf, i32 noundef 77)
  call void @proto_register_subtree_array(ptr noundef @proto_register_icq.ett, i32 noundef 4)
  %4 = load i32, ptr @proto_icq, align 4
  %5 = call ptr @expert_register_protocol(i32 noundef %4)
  store ptr %5, ptr %1, align 8
  %6 = load ptr, ptr %1, align 8
  call void @expert_register_field_array(ptr noundef %6, ptr noundef @proto_register_icq.ei, i32 noundef 2)
  %7 = load i32, ptr @proto_icq, align 4
  %8 = call ptr @register_dissector(ptr noundef @.str.137, ptr noundef @dissect_icq, i32 noundef %7)
  store ptr %8, ptr @icq_handle, align 8
  call void @llvm.lifetime.end.p0(i64 8, ptr %1) #6
  ret void
}